target datalayout = "e-m:e-p270:32:32-p271:32:32-p272:64:64-i64:64-i128:128-f80:128-n8:16:32:64-S128"
target triple = "x86_64-pc-linux-gnu"

%struct.H5G_name_t = type { ptr, ptr, i32 }

@.str = private unnamed_addr constant [101 x i8] c"generated/home/dtcxzyw/WorkSpace/Projects/compilers/llvm-opt-benchmark/bench/hdf5/hdf5/src/H5Gtest.c\00", align 1
@H5E_ARGS_g = external global i64, align 8
@H5E_BADTYPE_g = external global i64, align 8
@H5E_SYM_g = external global i64, align 8
@H5E_CANTSET_g = external global i64, align 8
@.str.2 = private unnamed_addr constant [22 x i8] c"can't set API context\00", align 1
@H5E_CANTRESET_g = external global i64, align 8
@.str.10 = private unnamed_addr constant [24 x i8] c"can't reset API context\00", align 1
@__func__.H5G__user_path_test = private unnamed_addr constant [20 x i8] c"H5G__user_path_test\00", align 1
@.str.19 = private unnamed_addr constant [24 x i8] c"can't get object for ID\00", align 1
@.str.20 = private unnamed_addr constant [21 x i8] c"not a named datatype\00", align 1
@.str.21 = private unnamed_addr constant [43 x i8] c"maps not supported in native VOL connector\00", align 1
@.str.22 = private unnamed_addr constant [25 x i8] c"unknown data object type\00", align 1

; Function Attrs: nounwind uwtable
define i32 @H5G__user_path_test(i64 noundef %0, ptr noundef %1, ptr noundef %2, ptr noundef %3) #0 {
  %5 = alloca i64, align 8
  %6 = alloca ptr, align 8
  %7 = alloca ptr, align 8
  %8 = alloca ptr, align 8
  %9 = alloca ptr, align 8
  %10 = alloca ptr, align 8
  %11 = alloca i8, align 1
  %12 = alloca i32, align 4
  %13 = alloca i8, align 1
  %14 = alloca i64, align 8
  store i64 %0, ptr %5, align 8
  store ptr %1, ptr %6, align 8
  store ptr %2, ptr %7, align 8
  store ptr %3, ptr %8, align 8
  store i8 0, ptr %11, align 1
  store i32 0, ptr %12, align 4
  store i8 0, ptr %13, align 1
  %15 = load i64, ptr %5, align 8
  %16 = call ptr @H5VL_object(i64 noundef %15)
  store ptr %16, ptr %9, align 8
  %17 = icmp eq ptr null, %16
  br i1 %17, label %18, label %33

18:                                               ; preds = %4
  br label %19

19:                                               ; preds = %18
  br label %20

20:                                               ; preds = %19
  br label %21

21:                                               ; preds = %20
  %22 = load i64, ptr @H5E_ARGS_g, align 8
  %23 = load i64, ptr @H5E_BADTYPE_g, align 8
  %24 = call i32 (ptr, ptr, i32, i64, i64, ptr, ...) @H5E_printf_stack(ptr noundef @.str, ptr noundef @__func__.H5G__user_path_test, i32 noundef 566, i64 noundef %22, i64 noundef %23, ptr noundef @.str.19)
  br label %25

25:                                               ; preds = %21
  store i8 1, ptr %13, align 1
  %26 = load i8, ptr %13, align 1
  %27 = trunc i8 %26 to i1
  %28 = zext i1 %27 to i8
  store i8 %28, ptr %13, align 1
  br label %29

29:                                               ; preds = %25
  br label %30

30:                                               ; preds = %29
  store i32 -1, ptr %12, align 4
  br label %145

31:                                               ; No predecessors!
  br label %32

32:                                               ; preds = %31
  br label %33

33:                                               ; preds = %32, %4
  %34 = call i32 @H5CX_push()
  %35 = icmp slt i32 %34, 0
  br i1 %35, label %36, label %51

36:                                               ; preds = %33
  br label %37

37:                                               ; preds = %36
  br label %38

38:                                               ; preds = %37
  br label %39

39:                                               ; preds = %38
  %40 = load i64, ptr @H5E_SYM_g, align 8
  %41 = load i64, ptr @H5E_CANTSET_g, align 8
  %42 = call i32 (ptr, ptr, i32, i64, i64, ptr, ...) @H5E_printf_stack(ptr noundef @.str, ptr noundef @__func__.H5G__user_path_test, i32 noundef 570, i64 noundef %40, i64 noundef %41, ptr noundef @.str.2)
  br label %43

43:                                               ; preds = %39
  store i8 1, ptr %13, align 1
  %44 = load i8, ptr %13, align 1
  %45 = trunc i8 %44 to i1
  %46 = zext i1 %45 to i8
  store i8 %46, ptr %13, align 1
  br label %47

47:                                               ; preds = %43
  br label %48

48:                                               ; preds = %47
  store i32 -1, ptr %12, align 4
  br label %145

49:                                               ; No predecessors!
  br label %50

50:                                               ; preds = %49
  br label %51

51:                                               ; preds = %50, %33
  store i8 1, ptr %11, align 1
  %52 = load i64, ptr %5, align 8
  %53 = call i32 @H5I_get_type(i64 noundef %52)
  switch i32 %53, label %98 [
    i32 2, label %54
    i32 5, label %57
    i32 3, label %60
    i32 6, label %82
    i32 -2, label %97
    i32 -1, label %97
    i32 1, label %97
    i32 4, label %97
    i32 7, label %97
    i32 8, label %97
    i32 9, label %97
    i32 10, label %97
    i32 11, label %97
    i32 12, label %97
    i32 13, label %97
    i32 14, label %97
    i32 15, label %97
    i32 16, label %97
    i32 17, label %97
  ]

54:                                               ; preds = %51
  %55 = load ptr, ptr %9, align 8
  %56 = call ptr @H5G_nameof(ptr noundef %55)
  store ptr %56, ptr %10, align 8
  br label %113

57:                                               ; preds = %51
  %58 = load ptr, ptr %9, align 8
  %59 = call ptr @H5D_nameof(ptr noundef %58)
  store ptr %59, ptr %10, align 8
  br label %113

60:                                               ; preds = %51
  %61 = load ptr, ptr %9, align 8
  %62 = call i32 @H5T_is_named(ptr noundef %61)
  %63 = icmp ne i32 %62, 0
  br i1 %63, label %79, label %64

64:                                               ; preds = %60
  br label %65

65:                                               ; preds = %64
  br label %66

66:                                               ; preds = %65
  br label %67

67:                                               ; preds = %66
  %68 = load i64, ptr @H5E_ARGS_g, align 8
  %69 = load i64, ptr @H5E_BADTYPE_g, align 8
  %70 = call i32 (ptr, ptr, i32, i64, i64, ptr, ...) @H5E_printf_stack(ptr noundef @.str, ptr noundef @__func__.H5G__user_path_test, i32 noundef 586, i64 noundef %68, i64 noundef %69, ptr noundef @.str.20)
  br label %71

71:                                               ; preds = %67
  store i8 1, ptr %13, align 1
  %72 = load i8, ptr %13, align 1
  %73 = trunc i8 %72 to i1
  %74 = zext i1 %73 to i8
  store i8 %74, ptr %13, align 1
  br label %75

75:                                               ; preds = %71
  br label %76

76:                                               ; preds = %75
  store i32 -1, ptr %12, align 4
  br label %145

77:                                               ; No predecessors!
  br label %78

78:                                               ; preds = %77
  br label %79

79:                                               ; preds = %78, %60
  %80 = load ptr, ptr %9, align 8
  %81 = call ptr @H5T_nameof(ptr noundef %80)
  store ptr %81, ptr %10, align 8
  br label %113

82:                                               ; preds = %51
  br label %83

83:                                               ; preds = %82
  br label %84

84:                                               ; preds = %83
  br label %85

85:                                               ; preds = %84
  %86 = load i64, ptr @H5E_ARGS_g, align 8
  %87 = load i64, ptr @H5E_BADTYPE_g, align 8
  %88 = call i32 (ptr, ptr, i32, i64, i64, ptr, ...) @H5E_printf_stack(ptr noundef @.str, ptr noundef @__func__.H5G__user_path_test, i32 noundef 592, i64 noundef %86, i64 noundef %87, ptr noundef @.str.21)
  br label %89

89:                                               ; preds = %85
  store i8 1, ptr %13, align 1
  %90 = load i8, ptr %13, align 1
  %91 = trunc i8 %90 to i1
  %92 = zext i1 %91 to i8
  store i8 %92, ptr %13, align 1
  br label %93

93:                                               ; preds = %89
  br label %94

94:                                               ; preds = %93
  store i32 -1, ptr %12, align 4
  br label %145

95:                                               ; No predecessors!
  br label %96

96:                                               ; preds = %95
  br label %97

97:                                               ; preds = %96, %51, %51, %51, %51, %51, %51, %51, %51, %51, %51, %51, %51, %51, %51, %51
  br label %98

98:                                               ; preds = %97, %51
  br label %99

99:                                               ; preds = %98
  br label %100

100:                                              ; preds = %99
  br label %101

101:                                              ; preds = %100
  %102 = load i64, ptr @H5E_ARGS_g, align 8
  %103 = load i64, ptr @H5E_BADTYPE_g, align 8
  %104 = call i32 (ptr, ptr, i32, i64, i64, ptr, ...) @H5E_printf_stack(ptr noundef @.str, ptr noundef @__func__.H5G__user_path_test, i32 noundef 610, i64 noundef %102, i64 noundef %103, ptr noundef @.str.22)
  br label %105

105:                                              ; preds = %101
  store i8 1, ptr %13, align 1
  %106 = load i8, ptr %13, align 1
  %107 = trunc i8 %106 to i1
  %108 = zext i1 %107 to i8
  store i8 %108, ptr %13, align 1
  br label %109

109:                                              ; preds = %105
  br label %110

110:                                              ; preds = %109
  store i32 -1, ptr %12, align 4
  br label %145

111:                                              ; No predecessors!
  br label %112

112:                                              ; preds = %111
  br label %113

113:                                              ; preds = %112, %79, %57, %54
  %114 = load ptr, ptr %10, align 8
  %115 = getelementptr inbounds %struct.H5G_name_t, ptr %114, i32 0, i32 1
  %116 = load ptr, ptr %115, align 8
  %117 = icmp ne ptr %116, null
  br i1 %117, label %118, label %141

118:                                              ; preds = %113
  %119 = load ptr, ptr %10, align 8
  %120 = getelementptr inbounds %struct.H5G_name_t, ptr %119, i32 0, i32 1
  %121 = load ptr, ptr %120, align 8
  %122 = call i64 @H5RS_len(ptr noundef %121)
  store i64 %122, ptr %14, align 8
  %123 = load ptr, ptr %6, align 8
  %124 = icmp ne ptr %123, null
  br i1 %124, label %125, label %134

125:                                              ; preds = %118
  %126 = load ptr, ptr %6, align 8
  %127 = load ptr, ptr %10, align 8
  %128 = getelementptr inbounds %struct.H5G_name_t, ptr %127, i32 0, i32 1
  %129 = load ptr, ptr %128, align 8
  %130 = call ptr @H5RS_get_str(ptr noundef %129)
  %131 = load i64, ptr %14, align 8
  %132 = add i64 %131, 1
  %133 = call ptr @strncpy(ptr noundef %126, ptr noundef %130, i64 noundef %132) #4
  br label %134

134:                                              ; preds = %125, %118
  %135 = load i64, ptr %14, align 8
  %136 = load ptr, ptr %7, align 8
  store i64 %135, ptr %136, align 8
  %137 = load ptr, ptr %10, align 8
  %138 = getelementptr inbounds %struct.H5G_name_t, ptr %137, i32 0, i32 2
  %139 = load i32, ptr %138, align 8
  %140 = load ptr, ptr %8, align 8
  store i32 %139, ptr %140, align 4
  br label %144

141:                                              ; preds = %113
  %142 = load ptr, ptr %7, align 8
  store i64 0, ptr %142, align 8
  %143 = load ptr, ptr %8, align 8
  store i32 0, ptr %143, align 4
  br label %144

144:                                              ; preds = %141, %134
  br label %145

145:                                              ; preds = %144, %110, %94, %76, %48, %30
  %146 = load i8, ptr %11, align 1
  %147 = trunc i8 %146 to i1
  br i1 %147, label %148, label %164

148:                                              ; preds = %145
  %149 = call i32 @H5CX_pop(i1 noundef zeroext false)
  %150 = icmp slt i32 %149, 0
  br i1 %150, label %151, label %164

151:                                              ; preds = %148
  br label %152

152:                                              ; preds = %151
  br label %153

153:                                              ; preds = %152
  br label %154

154:                                              ; preds = %153
  %155 = load i64, ptr @H5E_SYM_g, align 8
  %156 = load i64, ptr @H5E_CANTRESET_g, align 8
  %157 = call i32 (ptr, ptr, i32, i64, i64, ptr, ...) @H5E_printf_stack(ptr noundef @.str, ptr noundef @__func__.H5G__user_path_test, i32 noundef 635, i64 noundef %155, i64 noundef %156, ptr noundef @.str.10)
  br label %158

158:                                              ; preds = %154
  store i8 1, ptr %13, align 1
  %159 = load i8, ptr %13, align 1
  %160 = trunc i8 %159 to i1
  %161 = zext i1 %160 to i8
  store i8 %161, ptr %13, align 1
  br label %162

162:                                              ; preds = %158
  store i32 -1, ptr %12, align 4
  br label %163

163:                                              ; preds = %162
  br label %164

164:                                              ; preds = %163, %148, %145
  %165 = load i32, ptr %12, align 4
  ret i32 %165
}