; Function Attrs: nounwind uwtable
define range(i32 -1, 1) i32 @H5G__user_path_test(i64 noundef %0, ptr noundef %1, ptr nocapture noundef writeonly %2, ptr nocapture noundef writeonly %3) local_unnamed_addr #0 {
  %5 = tail call ptr @H5VL_object(i64 noundef %0) #4
  %6 = icmp eq ptr %5, null
  br i1 %6, label %7, label %11

7:                                                ; preds = %4
  %8 = load i64, ptr @H5E_ARGS_g, align 8
  %9 = load i64, ptr @H5E_BADTYPE_g, align 8
  %10 = tail call i32 (ptr, ptr, i32, i64, i64, ptr, ...) @H5E_printf_stack(ptr noundef nonnull @.str, ptr noundef nonnull @__func__.H5G__user_path_test, i32 noundef 566, i64 noundef %8, i64 noundef %9, ptr noundef nonnull @.str.19) #4
  br label %61

11:                                               ; preds = %4
  %12 = tail call i32 @H5CX_push() #4
  %13 = icmp slt i32 %12, 0
  br i1 %13, label %14, label %18

14:                                               ; preds = %11
  %15 = load i64, ptr @H5E_SYM_g, align 8
  %16 = load i64, ptr @H5E_CANTSET_g, align 8
  %17 = tail call i32 (ptr, ptr, i32, i64, i64, ptr, ...) @H5E_printf_stack(ptr noundef nonnull @.str, ptr noundef nonnull @__func__.H5G__user_path_test, i32 noundef 570, i64 noundef %15, i64 noundef %16, ptr noundef nonnull @.str.2) #4
  br label %61

18:                                               ; preds = %11
  %19 = tail call i32 @H5I_get_type(i64 noundef %0) #4
  switch i32 %19, label %36 [
    i32 2, label %20
    i32 5, label %22
    i32 3, label %24
    i32 6, label %32
  ]

20:                                               ; preds = %18
  %21 = tail call ptr @H5G_nameof(ptr noundef nonnull %5) #4
  br label %40

22:                                               ; preds = %18
  %23 = tail call ptr @H5D_nameof(ptr noundef nonnull %5) #4
  br label %40

24:                                               ; preds = %18
  %25 = tail call i32 @H5T_is_named(ptr noundef nonnull %5) #4
  %.not = icmp eq i32 %25, 0
  br i1 %.not, label %26, label %30

26:                                               ; preds = %24
  %27 = load i64, ptr @H5E_ARGS_g, align 8
  %28 = load i64, ptr @H5E_BADTYPE_g, align 8
  %29 = tail call i32 (ptr, ptr, i32, i64, i64, ptr, ...) @H5E_printf_stack(ptr noundef nonnull @.str, ptr noundef nonnull @__func__.H5G__user_path_test, i32 noundef 586, i64 noundef %27, i64 noundef %28, ptr noundef nonnull @.str.20) #4
  br label %54

30:                                               ; preds = %24
  %31 = tail call ptr @H5T_nameof(ptr noundef nonnull %5) #4
  br label %40

32:                                               ; preds = %18
  %33 = load i64, ptr @H5E_ARGS_g, align 8
  %34 = load i64, ptr @H5E_BADTYPE_g, align 8
  %35 = tail call i32 (ptr, ptr, i32, i64, i64, ptr, ...) @H5E_printf_stack(ptr noundef nonnull @.str, ptr noundef nonnull @__func__.H5G__user_path_test, i32 noundef 592, i64 noundef %33, i64 noundef %34, ptr noundef nonnull @.str.21) #4
  br label %54

36:                                               ; preds = %18
  %37 = load i64, ptr @H5E_ARGS_g, align 8
  %38 = load i64, ptr @H5E_BADTYPE_g, align 8
  %39 = tail call i32 (ptr, ptr, i32, i64, i64, ptr, ...) @H5E_printf_stack(ptr noundef nonnull @.str, ptr noundef nonnull @__func__.H5G__user_path_test, i32 noundef 610, i64 noundef %37, i64 noundef %38, ptr noundef nonnull @.str.22) #4
  br label %54

40:                                               ; preds = %30, %22, %20
  %.0 = phi ptr [ %31, %30 ], [ %23, %22 ], [ %21, %20 ]
  %41 = getelementptr inbounds i8, ptr %.0, i64 8
  %42 = load ptr, ptr %41, align 8
  %.not30 = icmp eq ptr %42, null
  br i1 %.not30, label %53, label %43

43:                                               ; preds = %40
  %44 = tail call i64 @H5RS_len(ptr noundef nonnull %42) #4
  %.not31 = icmp eq ptr %1, null
  br i1 %.not31, label %50, label %45

45:                                               ; preds = %43
  %46 = load ptr, ptr %41, align 8
  %47 = tail call ptr @H5RS_get_str(ptr noundef %46) #4
  %48 = add i64 %44, 1
  %49 = tail call ptr @strncpy(ptr noundef nonnull %1, ptr noundef %47, i64 noundef %48) #4
  br label %50

50:                                               ; preds = %45, %43
  store i64 %44, ptr %2, align 8
  %51 = getelementptr inbounds i8, ptr %.0, i64 16
  %52 = load i32, ptr %51, align 8
  store i32 %52, ptr %3, align 4
  br label %54

53:                                               ; preds = %40
  store i64 0, ptr %2, align 8
  store i32 0, ptr %3, align 4
  br label %54

54:                                               ; preds = %36, %32, %50, %53, %26
  %.025.ph = phi i32 [ -1, %26 ], [ 0, %53 ], [ 0, %50 ], [ -1, %32 ], [ -1, %36 ]
  %55 = tail call i32 @H5CX_pop(i1 noundef zeroext false) #4
  %56 = icmp slt i32 %55, 0
  br i1 %56, label %57, label %61

57:                                               ; preds = %54
  %58 = load i64, ptr @H5E_SYM_g, align 8
  %59 = load i64, ptr @H5E_CANTRESET_g, align 8
  %60 = tail call i32 (ptr, ptr, i32, i64, i64, ptr, ...) @H5E_printf_stack(ptr noundef nonnull @.str, ptr noundef nonnull @__func__.H5G__user_path_test, i32 noundef 635, i64 noundef %58, i64 noundef %59, ptr noundef nonnull @.str.10) #4
  br label %61

61:                                               ; preds = %7, %14, %57, %54
  %.1 = phi i32 [ -1, %57 ], [ %.025.ph, %54 ], [ -1, %7 ], [ -1, %14 ]
  ret i32 %.1
}